target datalayout = "e-m:e-p270:32:32-p271:32:32-p272:64:64-i64:64-i128:128-f80:128-n8:16:32:64-S128"
target triple = "x86_64-pc-linux-gnu"

%struct.ParseCallbackState = type { ptr, i32, %struct.ErrorContextCallback }
%struct.ErrorContextCallback = type { ptr, ptr, ptr }
%struct.ColumnDef = type { i32, ptr, ptr, ptr, i16, i8, i8, i8, i8, ptr, ptr, ptr, i8, ptr, i8, ptr, i32, ptr, ptr, i32 }
%struct.CollateClause = type { i32, ptr, ptr, i32 }

@.str.1 = private unnamed_addr constant [13 x i8] c"parse_type.c\00", align 1
@.str.8 = private unnamed_addr constant [40 x i8] c"collations are not supported by type %s\00", align 1
@__func__.GetColumnDefCollation = private unnamed_addr constant [22 x i8] c"GetColumnDefCollation\00", align 1

; Function Attrs: nounwind uwtable
define dso_local i32 @LookupCollation(ptr noundef %0, ptr noundef %1, i32 noundef %2) #0 {
  %4 = alloca ptr, align 8
  %5 = alloca ptr, align 8
  %6 = alloca i32, align 4
  %7 = alloca i32, align 4
  %8 = alloca %struct.ParseCallbackState, align 8
  store ptr %0, ptr %4, align 8
  store ptr %1, ptr %5, align 8
  store i32 %2, ptr %6, align 4
  call void @llvm.lifetime.start.p0(i64 4, ptr %7) #7
  call void @llvm.lifetime.start.p0(i64 40, ptr %8) #7
  %9 = load ptr, ptr %4, align 8
  %10 = icmp ne ptr %9, null
  br i1 %10, label %11, label %14

11:                                               ; preds = %3
  %12 = load ptr, ptr %4, align 8
  %13 = load i32, ptr %6, align 4
  call void @setup_parser_errposition_callback(ptr noundef %8, ptr noundef %12, i32 noundef %13)
  br label %14

14:                                               ; preds = %11, %3
  %15 = load ptr, ptr %5, align 8
  %16 = call i32 @get_collation_oid(ptr noundef %15, i1 noundef zeroext false)
  store i32 %16, ptr %7, align 4
  %17 = load ptr, ptr %4, align 8
  %18 = icmp ne ptr %17, null
  br i1 %18, label %19, label %20

19:                                               ; preds = %14
  call void @cancel_parser_errposition_callback(ptr noundef %8)
  br label %20

20:                                               ; preds = %19, %14
  %21 = load i32, ptr %7, align 4
  call void @llvm.lifetime.end.p0(i64 40, ptr %8) #7
  call void @llvm.lifetime.end.p0(i64 4, ptr %7) #7
  ret i32 %21
}

; Function Attrs: nounwind uwtable
define dso_local i32 @GetColumnDefCollation(ptr noundef %0, ptr noundef %1, i32 noundef %2) #0 {
  %4 = alloca ptr, align 8
  %5 = alloca ptr, align 8
  %6 = alloca i32, align 4
  %7 = alloca i32, align 4
  %8 = alloca i32, align 4
  %9 = alloca i32, align 4
  store ptr %0, ptr %4, align 8
  store ptr %1, ptr %5, align 8
  store i32 %2, ptr %6, align 4
  call void @llvm.lifetime.start.p0(i64 4, ptr %7) #7
  call void @llvm.lifetime.start.p0(i64 4, ptr %8) #7
  %10 = load i32, ptr %6, align 4
  %11 = call i32 @get_typcollation(i32 noundef %10)
  store i32 %11, ptr %8, align 4
  call void @llvm.lifetime.start.p0(i64 4, ptr %9) #7
  %12 = load ptr, ptr %5, align 8
  %13 = getelementptr inbounds nuw %struct.ColumnDef, ptr %12, i32 0, i32 19
  %14 = load i32, ptr %13, align 8
  store i32 %14, ptr %9, align 4
  %15 = load ptr, ptr %5, align 8
  %16 = getelementptr inbounds nuw %struct.ColumnDef, ptr %15, i32 0, i32 15
  %17 = load ptr, ptr %16, align 8
  %18 = icmp ne ptr %17, null
  br i1 %18, label %19, label %33

19:                                               ; preds = %3
  %20 = load ptr, ptr %5, align 8
  %21 = getelementptr inbounds nuw %struct.ColumnDef, ptr %20, i32 0, i32 15
  %22 = load ptr, ptr %21, align 8
  %23 = getelementptr inbounds nuw %struct.CollateClause, ptr %22, i32 0, i32 3
  %24 = load i32, ptr %23, align 8
  store i32 %24, ptr %9, align 4
  %25 = load ptr, ptr %4, align 8
  %26 = load ptr, ptr %5, align 8
  %27 = getelementptr inbounds nuw %struct.ColumnDef, ptr %26, i32 0, i32 15
  %28 = load ptr, ptr %27, align 8
  %29 = getelementptr inbounds nuw %struct.CollateClause, ptr %28, i32 0, i32 2
  %30 = load ptr, ptr %29, align 8
  %31 = load i32, ptr %9, align 4
  %32 = call i32 @LookupCollation(ptr noundef %25, ptr noundef %30, i32 noundef %31)
  store i32 %32, ptr %7, align 4
  br label %45

33:                                               ; preds = %3
  %34 = load ptr, ptr %5, align 8
  %35 = getelementptr inbounds nuw %struct.ColumnDef, ptr %34, i32 0, i32 16
  %36 = load i32, ptr %35, align 8
  %37 = icmp ne i32 %36, 0
  br i1 %37, label %38, label %42

38:                                               ; preds = %33
  %39 = load ptr, ptr %5, align 8
  %40 = getelementptr inbounds nuw %struct.ColumnDef, ptr %39, i32 0, i32 16
  %41 = load i32, ptr %40, align 8
  store i32 %41, ptr %7, align 4
  br label %44

42:                                               ; preds = %33
  %43 = load i32, ptr %8, align 4
  store i32 %43, ptr %7, align 4
  br label %44

44:                                               ; preds = %42, %38
  br label %45

45:                                               ; preds = %44, %19
  %46 = load i32, ptr %7, align 4
  %47 = icmp ne i32 %46, 0
  br i1 %47, label %48, label %68

48:                                               ; preds = %45
  %49 = load i32, ptr %8, align 4
  %50 = icmp ne i32 %49, 0
  br i1 %50, label %68, label %51

51:                                               ; preds = %48
  br label %52

52:                                               ; preds = %51
  br i1 true, label %53, label %55

53:                                               ; preds = %52
  %54 = call zeroext i1 @errstart_cold(i32 noundef 21, ptr noundef null) #8
  br i1 %54, label %57, label %65

55:                                               ; preds = %52
  %56 = call zeroext i1 @errstart(i32 noundef 21, ptr noundef null)
  br i1 %56, label %57, label %65

57:                                               ; preds = %55, %53
  %58 = call i32 @errcode(i32 noundef 67141764)
  %59 = load i32, ptr %6, align 4
  %60 = call ptr @format_type_be(i32 noundef %59)
  %61 = call i32 (ptr, ...) @errmsg(ptr noundef @.str.8, ptr noundef %60)
  %62 = load ptr, ptr %4, align 8
  %63 = load i32, ptr %9, align 4
  %64 = call i32 @parser_errposition(ptr noundef %62, i32 noundef %63)
  call void @errfinish(ptr noundef @.str.1, i32 noundef 570, ptr noundef @__func__.GetColumnDefCollation)
  br label %65

65:                                               ; preds = %57, %55, %53
  unreachable

66:                                               ; No predecessors!
  br label %67

67:                                               ; preds = %66
  br label %68

68:                                               ; preds = %67, %48, %45
  %69 = load i32, ptr %7, align 4
  call void @llvm.lifetime.end.p0(i64 4, ptr %9) #7
  call void @llvm.lifetime.end.p0(i64 4, ptr %8) #7
  call void @llvm.lifetime.end.p0(i64 4, ptr %7) #7
  ret i32 %69
}