; Function Attrs: nounwind uwtable
define dso_local i32 @GetColumnDefCollation(ptr noundef %0, ptr noundef readonly captures(none) %1, i32 noundef %2) local_unnamed_addr #0 {
  %4 = alloca %struct.ParseCallbackState, align 8
  %5 = tail call i32 @get_typcollation(i32 noundef %2) #7
  %6 = getelementptr inbounds nuw i8, ptr %1, i64 88
  %7 = load ptr, ptr %6, align 8
  %.not = icmp eq ptr %7, null
  br i1 %.not, label %17, label %8

8:                                                ; preds = %3
  %9 = getelementptr inbounds nuw i8, ptr %7, i64 24
  %10 = load i32, ptr %9, align 8
  %11 = getelementptr inbounds nuw i8, ptr %7, i64 16
  %12 = load ptr, ptr %11, align 8
  call void @llvm.lifetime.start.p0(i64 40, ptr nonnull %4) #7
  %.not.i = icmp eq ptr %0, null
  br i1 %.not.i, label %.thread.i, label %14

.thread.i:                                        ; preds = %8
  %13 = tail call i32 @get_collation_oid(ptr noundef %12, i1 noundef zeroext false) #7
  br label %LookupCollation.exit

14:                                               ; preds = %8
  call void @setup_parser_errposition_callback(ptr noundef nonnull %4, ptr noundef nonnull %0, i32 noundef %10) #7
  %15 = call i32 @get_collation_oid(ptr noundef %12, i1 noundef zeroext false) #7
  call void @cancel_parser_errposition_callback(ptr noundef nonnull %4) #7
  br label %LookupCollation.exit

LookupCollation.exit:                             ; preds = %.thread.i, %14
  %16 = phi i32 [ %13, %.thread.i ], [ %15, %14 ]
  call void @llvm.lifetime.end.p0(i64 40, ptr nonnull %4) #7
  br label %22

17:                                               ; preds = %3
  %18 = getelementptr inbounds nuw i8, ptr %1, i64 120
  %19 = load i32, ptr %18, align 8
  %20 = getelementptr inbounds nuw i8, ptr %1, i64 96
  %21 = load i32, ptr %20, align 8
  %.not19 = icmp eq i32 %21, 0
  %. = select i1 %.not19, i32 %5, i32 %21
  br label %22

22:                                               ; preds = %17, %LookupCollation.exit
  %.016 = phi i32 [ %16, %LookupCollation.exit ], [ %., %17 ]
  %.0 = phi i32 [ %10, %LookupCollation.exit ], [ %19, %17 ]
  %23 = icmp eq i32 %.016, 0
  %24 = icmp ne i32 %5, 0
  %or.cond = select i1 %23, i1 true, i1 %24
  br i1 %or.cond, label %31, label %25

25:                                               ; preds = %22
  %26 = call zeroext i1 @errstart_cold(i32 noundef 21, ptr noundef null) #8
  call void @llvm.assume(i1 %26)
  %27 = call i32 @errcode(i32 noundef 67141764) #7
  %28 = call ptr @format_type_be(i32 noundef %2) #7
  %29 = call i32 (ptr, ...) @errmsg(ptr noundef nonnull @.str.8, ptr noundef %28) #7
  %30 = call i32 @parser_errposition(ptr noundef %0, i32 noundef %.0) #7
  call void @errfinish(ptr noundef nonnull @.str.1, i32 noundef 570, ptr noundef nonnull @__func__.GetColumnDefCollation) #7
  unreachable

31:                                               ; preds = %22
  ret i32 %.016
}